Certificate:
    Data:
        Version: 3 (0x2)
        Serial Number: 3878 (0xf26)
        Signature Algorithm: sha1WithRSAEncryption
        Issuer: C=US, ST=NY, L=New York, O=Bloomberg LP, OU=CTO Office, CN=Bloomberg LP CA/emailAddress=open-tech@bloomberg.net
        Validity
            Not Before: Feb 19 06:00:00 2015 GMT
            Not After : Feb 23 06:00:00 2015 GMT
        Subject: C=US, ST=NY, L=New York, O=Bloomberg LP, OU=CTO Office, CN=treehacks_spring_2015_031/emailAddress=open-tech@bloomberg.net
        Subject Public Key Info:
            Public Key Algorithm: rsaEncryption
            RSA Public Key: (1024 bit)
                Modulus (1024 bit):
                    00:de:a6:c5:72:52:aa:49:80:a0:49:6d:11:60:54:
                    55:4f:f4:8e:ba:fe:59:36:98:1f:43:0c:9b:a7:37:
                    92:a0:08:09:86:14:2f:a9:0f:ae:0e:da:a9:a7:ff:
                    05:e6:a5:31:7f:9b:3a:08:b2:3a:10:79:37:cf:84:
                    65:22:9c:c2:f3:47:8a:85:e9:9b:0d:bb:58:f8:66:
                    63:3a:46:a7:fa:ae:e2:0c:79:a1:0b:5d:e3:5b:80:
                    bc:a0:29:7c:22:8e:e6:21:fb:0a:f6:dd:99:9e:2d:
                    e2:4d:b7:d2:0e:da:7a:ad:d0:d2:2a:64:8d:3b:00:
                    ce:d6:d1:97:1a:ad:7e:c0:bb
                Exponent: 65537 (0x10001)
        X509v3 extensions:
            X509v3 Basic Constraints: 
                CA:FALSE
            Netscape Comment: 
                Easy-RSA Generated Certificate
            X509v3 Subject Key Identifier: 
                C2:72:F6:A8:EF:2A:DD:18:0D:8A:CE:F0:C3:E0:C4:51:90:45:BD:DF
            X509v3 Authority Key Identifier: 
                keyid:F3:21:76:1F:DA:B5:E7:03:FC:ED:D7:71:B8:1C:55:2D:7E:65:5F:14
                DirName:/C=US/ST=NY/L=New York/O=Bloomberg LP/OU=CTO Office/CN=Bloomberg LP CA/emailAddress=open-tech@bloomberg.net
                serial:81:F3:7A:1C:BC:C6:E8:A2

            X509v3 Extended Key Usage: 
                TLS Web Client Authentication
            X509v3 Key Usage: 
                Digital Signature
    Signature Algorithm: sha1WithRSAEncryption
        95:05:f6:01:75:e3:f0:27:d9:e6:b5:11:42:70:60:2c:d8:3c:
        c2:e2:fb:ab:02:f9:bf:8a:b9:d9:ab:91:12:8a:58:2b:87:88:
        30:d5:83:d3:67:f4:05:4a:05:aa:5c:fd:f9:d1:a1:f4:ef:48:
        7c:56:f4:ff:52:76:e5:8c:ae:6e:0d:3d:5e:7f:9f:08:92:f6:
        00:8f:e2:9c:d4:0a:4e:95:3d:22:63:77:c4:d9:e7:37:f4:2a:
        3b:fc:18:62:6d:ae:27:2c:54:31:2e:f0:2a:44:a7:c9:f0:6f:
        33:b7:b2:13:c1:05:50:ec:aa:bf:70:22:6f:5a:1d:0e:c9:a3:
        93:59
-----BEGIN CERTIFICATE-----
MIIEDTCCA3agAwIBAgICDyYwDQYJKoZIhvcNAQEFBQAwgZsxCzAJBgNVBAYTAlVT
MQswCQYDVQQIEwJOWTERMA8GA1UEBxMITmV3IFlvcmsxFTATBgNVBAoTDEJsb29t
YmVyZyBMUDETMBEGA1UECxMKQ1RPIE9mZmljZTEYMBYGA1UEAxMPQmxvb21iZXJn
IExQIENBMSYwJAYJKoZIhvcNAQkBFhdvcGVuLXRlY2hAYmxvb21iZXJnLm5ldDAe
Fw0xNTAyMTkwNjAwMDBaFw0xNTAyMjMwNjAwMDBaMIGlMQswCQYDVQQGEwJVUzEL
MAkGA1UECBMCTlkxETAPBgNVBAcTCE5ldyBZb3JrMRUwEwYDVQQKEwxCbG9vbWJl
cmcgTFAxEzARBgNVBAsTCkNUTyBPZmZpY2UxIjAgBgNVBAMUGXRyZWVoYWNrc19z
cHJpbmdfMjAxNV8wMzExJjAkBgkqhkiG9w0BCQEWF29wZW4tdGVjaEBibG9vbWJl
cmcubmV0MIGfMA0GCSqGSIb3DQEBAQUAA4GNADCBiQKBgQDepsVyUqpJgKBJbRFg
VFVP9I66/lk2mB9DDJunN5KgCAmGFC+pD64O2qmn/wXmpTF/mzoIsjoQeTfPhGUi
nMLzR4qF6ZsNu1j4ZmM6Rqf6ruIMeaELXeNbgLygKXwijuYh+wr23ZmeLeJNt9IO
2nqt0NIqZI07AM7W0ZcarX7AuwIDAQABo4IBUjCCAU4wCQYDVR0TBAIwADAtBglg
hkgBhvhCAQ0EIBYeRWFzeS1SU0EgR2VuZXJhdGVkIENlcnRpZmljYXRlMB0GA1Ud
DgQWBBTCcvao7yrdGA2KzvDD4MRRkEW93zCB0AYDVR0jBIHIMIHFgBTzIXYf2rXn
A/zt13G4HFUtfmVfFKGBoaSBnjCBmzELMAkGA1UEBhMCVVMxCzAJBgNVBAgTAk5Z
MREwDwYDVQQHEwhOZXcgWW9yazEVMBMGA1UEChMMQmxvb21iZXJnIExQMRMwEQYD
VQQLEwpDVE8gT2ZmaWNlMRgwFgYDVQQDEw9CbG9vbWJlcmcgTFAgQ0ExJjAkBgkq
hkiG9w0BCQEWF29wZW4tdGVjaEBibG9vbWJlcmcubmV0ggkAgfN6HLzG6KIwEwYD
VR0lBAwwCgYIKwYBBQUHAwIwCwYDVR0PBAQDAgeAMA0GCSqGSIb3DQEBBQUAA4GB
AJUF9gF14/An2ea1EUJwYCzYPMLi+6sC+b+KudmrkRKKWCuHiDDVg9Nn9AVKBapc
/fnRofTvSHxW9P9SduWMrm4NPV5/nwiS9gCP4pzUCk6VPSJjd8TZ5zf0Kjv8GGJt
ricsVDEu8CpEp8nwbzO3shPBBVDsqr9wIm9aHQ7Jo5NZ
-----END CERTIFICATE-----
